target datalayout = "e-m:e-p270:32:32-p271:32:32-p272:64:64-i64:64-i128:128-f80:128-n8:16:32:64-S128"
target triple = "x86_64-pc-linux-gnu"

%"class.clang::TemplateArgument" = type { %union.anon }
%union.anon = type { %"struct.clang::TemplateArgument::DA" }
%"struct.clang::TemplateArgument::DA" = type { i32, ptr, ptr }
%"class.llvm::SmallVectorBase" = type { ptr, i32, i32 }
%"struct.llvm::detail::PunnedPointer.346" = type { [8 x i8] }
%"class.clang::SourceLocation" = type { i32 }
%"class.clang::TemplateArgumentLoc" = type { %"class.clang::TemplateArgument", %"struct.clang::TemplateArgumentLocInfo" }
%"struct.clang::TemplateArgumentLocInfo" = type { %"class.llvm::PointerUnion.361" }
%"class.llvm::PointerUnion.361" = type { %"class.llvm::pointer_union_detail::PointerUnionMembers.362" }
%"class.llvm::pointer_union_detail::PointerUnionMembers.362" = type { %"class.llvm::pointer_union_detail::PointerUnionMembers.363" }
%"class.llvm::pointer_union_detail::PointerUnionMembers.363" = type { %"class.llvm::pointer_union_detail::PointerUnionMembers.364" }
%"class.llvm::pointer_union_detail::PointerUnionMembers.364" = type { %"class.llvm::pointer_union_detail::PointerUnionMembers.365" }
%"class.llvm::pointer_union_detail::PointerUnionMembers.365" = type { %"class.llvm::PointerIntPair.366" }
%"class.llvm::PointerIntPair.366" = type { %"struct.llvm::detail::PunnedPointer.346" }
%"class.clang::TemplateArgumentListInfo" = type { %"class.llvm::SmallVector.367", %"class.clang::SourceLocation", %"class.clang::SourceLocation" }
%"class.llvm::SmallVector.367" = type { %"class.llvm::SmallVectorImpl.368", %"struct.llvm::SmallVectorStorage.371" }
%"class.llvm::SmallVectorImpl.368" = type { %"class.llvm::SmallVectorTemplateBase.369" }
%"class.llvm::SmallVectorTemplateBase.369" = type { %"class.llvm::SmallVectorTemplateCommon.370" }
%"class.llvm::SmallVectorTemplateCommon.370" = type { %"class.llvm::SmallVectorBase" }
%"struct.llvm::SmallVectorStorage.371" = type { [256 x i8] }
%"struct.clang::ASTTemplateKWAndArgsInfo" = type { %"class.clang::SourceLocation", %"class.clang::SourceLocation", %"class.clang::SourceLocation", i32 }

; Function Attrs: mustprogress nounwind uwtable
define linkonce_odr hidden noundef ptr @_ZNK4llvm25SmallVectorTemplateCommonIN5clang19TemplateArgumentLocEvE5beginEv(ptr noundef nonnull align 8 dereferenceable(16) %0) #0 comdat align 2 {
  %2 = alloca ptr, align 8
  store ptr %0, ptr %2, align 8
  %3 = load ptr, ptr %2, align 8
  %4 = getelementptr inbounds nuw %"class.llvm::SmallVectorBase", ptr %3, i32 0, i32 0
  %5 = load ptr, ptr %4, align 8
  ret ptr %5
}

; Function Attrs: mustprogress nounwind uwtable
define linkonce_odr hidden noundef nonnull align 8 dereferenceable(32) ptr @_ZNK4llvm25SmallVectorTemplateCommonIN5clang19TemplateArgumentLocEvEixEm(ptr noundef nonnull align 8 dereferenceable(16) %0, i64 noundef %1) #0 comdat align 2 {
  %3 = alloca ptr, align 8
  %4 = alloca i64, align 8
  store ptr %0, ptr %3, align 8
  store i64 %1, ptr %4, align 8
  %5 = load ptr, ptr %3, align 8
  %6 = call noundef ptr @_ZNK4llvm25SmallVectorTemplateCommonIN5clang19TemplateArgumentLocEvE5beginEv(ptr noundef nonnull align 8 dereferenceable(16) %5)
  %7 = load i64, ptr %4, align 8
  %8 = getelementptr inbounds %"class.clang::TemplateArgumentLoc", ptr %6, i64 %7
  ret ptr %8
}

; Function Attrs: mustprogress nounwind uwtable
define linkonce_odr hidden noundef nonnull align 8 dereferenceable(32) ptr @_ZNK5clang24TemplateArgumentListInfoixEj(ptr noundef nonnull align 8 dereferenceable(280) %0, i32 noundef %1) #0 comdat align 2 {
  %3 = alloca ptr, align 8
  %4 = alloca i32, align 4
  store ptr %0, ptr %3, align 8
  store i32 %1, ptr %4, align 4
  %5 = load ptr, ptr %3, align 8
  %6 = getelementptr inbounds nuw %"class.clang::TemplateArgumentListInfo", ptr %5, i32 0, i32 0
  %7 = load i32, ptr %4, align 4
  %8 = zext i32 %7 to i64
  %9 = call noundef nonnull align 8 dereferenceable(32) ptr @_ZNK4llvm25SmallVectorTemplateCommonIN5clang19TemplateArgumentLocEvEixEm(ptr noundef nonnull align 8 dereferenceable(16) %6, i64 noundef %8)
  ret ptr %9
}

; Function Attrs: mustprogress nounwind uwtable
define linkonce_odr hidden noundef i32 @_ZNK5clang24TemplateArgumentListInfo4sizeEv(ptr noundef nonnull align 8 dereferenceable(280) %0) #0 comdat align 2 {
  %2 = alloca ptr, align 8
  store ptr %0, ptr %2, align 8
  %3 = load ptr, ptr %2, align 8
  %4 = getelementptr inbounds nuw %"class.clang::TemplateArgumentListInfo", ptr %3, i32 0, i32 0
  %5 = call noundef i64 @_ZNK4llvm15SmallVectorBaseIjE4sizeEv(ptr noundef nonnull align 8 dereferenceable(16) %4)
  %6 = trunc i64 %5 to i32
  ret i32 %6
}

; Function Attrs: mustprogress nounwind uwtable
define linkonce_odr hidden i32 @_ZNK5clang24TemplateArgumentListInfo12getRAngleLocEv(ptr noundef nonnull align 8 dereferenceable(280) %0) #0 comdat align 2 {
  %2 = alloca %"class.clang::SourceLocation", align 4
  %3 = alloca ptr, align 8
  store ptr %0, ptr %3, align 8
  %4 = load ptr, ptr %3, align 8
  %5 = getelementptr inbounds nuw %"class.clang::TemplateArgumentListInfo", ptr %4, i32 0, i32 2
  call void @llvm.memcpy.p0.p0.i64(ptr align 4 %2, ptr align 4 %5, i64 4, i1 false)
  %6 = getelementptr inbounds nuw %"class.clang::SourceLocation", ptr %2, i32 0, i32 0
  %7 = load i32, ptr %6, align 4
  ret i32 %7
}

; Function Attrs: mustprogress nounwind uwtable
define linkonce_odr hidden i32 @_ZNK5clang24TemplateArgumentListInfo12getLAngleLocEv(ptr noundef nonnull align 8 dereferenceable(280) %0) #0 comdat align 2 {
  %2 = alloca %"class.clang::SourceLocation", align 4
  %3 = alloca ptr, align 8
  store ptr %0, ptr %3, align 8
  %4 = load ptr, ptr %3, align 8
  %5 = getelementptr inbounds nuw %"class.clang::TemplateArgumentListInfo", ptr %4, i32 0, i32 1
  call void @llvm.memcpy.p0.p0.i64(ptr align 4 %2, ptr align 8 %5, i64 4, i1 false)
  %6 = getelementptr inbounds nuw %"class.clang::SourceLocation", ptr %2, i32 0, i32 0
  %7 = load i32, ptr %6, align 4
  ret i32 %7
}

; Function Attrs: mustprogress nounwind uwtable
define dso_local void @_ZN5clang24ASTTemplateKWAndArgsInfo14initializeFromENS_14SourceLocationERKNS_24TemplateArgumentListInfoEPNS_19TemplateArgumentLocE(ptr noundef nonnull align 8 dereferenceable(16) %0, i32 %1, ptr noundef nonnull align 8 dereferenceable(280) %2, ptr noundef %3) #0 align 2 {
  %5 = alloca %"class.clang::SourceLocation", align 4
  %6 = alloca ptr, align 8
  %7 = alloca ptr, align 8
  %8 = alloca ptr, align 8
  %9 = alloca %"class.clang::SourceLocation", align 4
  %10 = alloca %"class.clang::SourceLocation", align 4
  %11 = alloca i32, align 4
  %12 = getelementptr inbounds nuw %"class.clang::SourceLocation", ptr %5, i32 0, i32 0
  store i32 %1, ptr %12, align 4
  store ptr %0, ptr %6, align 8
  store ptr %2, ptr %7, align 8
  store ptr %3, ptr %8, align 8
  %13 = load ptr, ptr %6, align 8
  %14 = getelementptr inbounds nuw %"struct.clang::ASTTemplateKWAndArgsInfo", ptr %13, i32 0, i32 2
  call void @llvm.memcpy.p0.p0.i64(ptr align 8 %14, ptr align 4 %5, i64 4, i1 false)
  %15 = load ptr, ptr %7, align 8
  %16 = call i32 @_ZNK5clang24TemplateArgumentListInfo12getLAngleLocEv(ptr noundef nonnull align 8 dereferenceable(280) %15)
  %17 = getelementptr inbounds nuw %"class.clang::SourceLocation", ptr %9, i32 0, i32 0
  store i32 %16, ptr %17, align 4
  %18 = getelementptr inbounds nuw %"struct.clang::ASTTemplateKWAndArgsInfo", ptr %13, i32 0, i32 0
  call void @llvm.memcpy.p0.p0.i64(ptr align 8 %18, ptr align 4 %9, i64 4, i1 false)
  %19 = load ptr, ptr %7, align 8
  %20 = call i32 @_ZNK5clang24TemplateArgumentListInfo12getRAngleLocEv(ptr noundef nonnull align 8 dereferenceable(280) %19)
  %21 = getelementptr inbounds nuw %"class.clang::SourceLocation", ptr %10, i32 0, i32 0
  store i32 %20, ptr %21, align 4
  %22 = getelementptr inbounds nuw %"struct.clang::ASTTemplateKWAndArgsInfo", ptr %13, i32 0, i32 1
  call void @llvm.memcpy.p0.p0.i64(ptr align 4 %22, ptr align 4 %10, i64 4, i1 false)
  %23 = load ptr, ptr %7, align 8
  %24 = call noundef i32 @_ZNK5clang24TemplateArgumentListInfo4sizeEv(ptr noundef nonnull align 8 dereferenceable(280) %23)
  %25 = getelementptr inbounds nuw %"struct.clang::ASTTemplateKWAndArgsInfo", ptr %13, i32 0, i32 3
  store i32 %24, ptr %25, align 4
  store i32 0, ptr %11, align 4
  br label %26

26:                                               ; preds = %39, %4
  %27 = load i32, ptr %11, align 4
  %28 = getelementptr inbounds nuw %"struct.clang::ASTTemplateKWAndArgsInfo", ptr %13, i32 0, i32 3
  %29 = load i32, ptr %28, align 4
  %30 = icmp ne i32 %27, %29
  br i1 %30, label %31, label %42

31:                                               ; preds = %26
  %32 = load ptr, ptr %8, align 8
  %33 = load i32, ptr %11, align 4
  %34 = zext i32 %33 to i64
  %35 = getelementptr inbounds %"class.clang::TemplateArgumentLoc", ptr %32, i64 %34
  %36 = load ptr, ptr %7, align 8
  %37 = load i32, ptr %11, align 4
  %38 = call noundef nonnull align 8 dereferenceable(32) ptr @_ZNK5clang24TemplateArgumentListInfoixEj(ptr noundef nonnull align 8 dereferenceable(280) %36, i32 noundef %37)
  call void @llvm.memcpy.p0.p0.i64(ptr align 8 %35, ptr align 8 %38, i64 32, i1 false)
  br label %39

39:                                               ; preds = %31
  %40 = load i32, ptr %11, align 4
  %41 = add i32 %40, 1
  store i32 %41, ptr %11, align 4
  br label %26, !llvm.loop !9

42:                                               ; preds = %26
  ret void
}