; Function Attrs: mustprogress nounwind uwtable
define dso_local void @_ZN5clang24ASTTemplateKWAndArgsInfo14initializeFromENS_14SourceLocationERKNS_24TemplateArgumentListInfoEPNS_19TemplateArgumentLocE(ptr nocapture noundef nonnull align 8 dereferenceable(16) %0, i32 %1, ptr noundef nonnull align 8 dereferenceable(280) %2, ptr nocapture noundef writeonly %3) local_unnamed_addr #1 align 2 {
  %5 = getelementptr inbounds nuw i8, ptr %0, i64 8
  store i32 %1, ptr %5, align 8
  %6 = getelementptr inbounds nuw i8, ptr %2, i64 272
  %.sroa.0.0.copyload.i = load i32, ptr %6, align 8
  store i32 %.sroa.0.0.copyload.i, ptr %0, align 8
  %7 = getelementptr inbounds nuw i8, ptr %2, i64 276
  %.sroa.0.0.copyload.i11 = load i32, ptr %7, align 4
  %8 = getelementptr inbounds nuw i8, ptr %0, i64 4
  store i32 %.sroa.0.0.copyload.i11, ptr %8, align 4
  %9 = tail call noundef i64 @_ZNK4llvm15SmallVectorBaseIjE4sizeEv(ptr noundef nonnull align 8 dereferenceable(16) %2) #18
  %10 = trunc i64 %9 to i32
  %11 = getelementptr inbounds nuw i8, ptr %0, i64 12
  store i32 %10, ptr %11, align 4
  %.not12 = icmp eq i32 %10, 0
  br i1 %.not12, label %._crit_edge, label %.lr.ph

.lr.ph:                                           ; preds = %4, %.lr.ph
  %.013 = phi i32 [ %16, %.lr.ph ], [ 0, %4 ]
  %12 = zext i32 %.013 to i64
  %13 = getelementptr inbounds %"class.clang::TemplateArgumentLoc", ptr %3, i64 %12
  %14 = load ptr, ptr %2, align 8
  %15 = getelementptr inbounds %"class.clang::TemplateArgumentLoc", ptr %14, i64 %12
  tail call void @llvm.memcpy.p0.p0.i64(ptr noundef nonnull align 8 dereferenceable(32) %13, ptr noundef nonnull align 8 dereferenceable(32) %15, i64 32, i1 false)
  %16 = add i32 %.013, 1
  %17 = load i32, ptr %11, align 4
  %.not = icmp eq i32 %16, %17
  br i1 %.not, label %._crit_edge, label %.lr.ph, !llvm.loop !38

._crit_edge:                                      ; preds = %.lr.ph, %4
  ret void
}